target datalayout = "e-m:e-p270:32:32-p271:32:32-p272:64:64-i64:64-i128:128-f80:128-n8:16:32:64-S128"
target triple = "x86_64-unknown-linux-gnu"

%"struct.std::atomic.191" = type { %"struct.std::__atomic_base.192" }
%"struct.std::__atomic_base.192" = type { i8 }
%struct.grpc_closure = type { %union.anon.138, ptr, ptr, %union.anon.140 }
%union.anon.138 = type { ptr }
%union.anon.140 = type { i64 }
%struct.grpc_stream_refcount = type { %"class.grpc_core::RefCount", %struct.grpc_closure }
%"class.grpc_core::RefCount" = type { %"struct.std::atomic.162" }
%"struct.std::atomic.162" = type { %"struct.std::__atomic_base.163" }
%"struct.std::__atomic_base.163" = type { i64 }
%"class.grpc_core::IntraActivityWaiter" = type { i16 }
%"class.grpc_core::RefCountedPtr.197" = type { ptr }
%"class.grpc_core::RefCountedPtr.201" = type { ptr }
%"class.grpc_core::RefCountedPtr.234" = type { ptr }
%"class.grpc_core::promise_detail::PromiseLike.247" = type { %class.anon.248 }
%class.anon.248 = type { ptr }
%"class.grpc_core::promise_detail::Loop" = type <{ %"class.grpc_core::promise_detail::RepeatedPromiseFactory.289", %union.anon.291, i8, [7 x i8] }>
%"class.grpc_core::promise_detail::RepeatedPromiseFactory.289" = type { %class.anon.290 }
%class.anon.290 = type { %"class.grpc_core::RefCountedPtr.197", i8, %"class.grpc_core::PipeSender" }
%"class.grpc_core::PipeSender" = type { %"class.grpc_core::RefCountedPtr.201" }
%union.anon.291 = type { %"class.grpc_core::promise_detail::PromiseLike.292" }
%"class.grpc_core::promise_detail::PromiseLike.292" = type { %"class.grpc_core::promise_detail::Seq.293" }
%"class.grpc_core::promise_detail::Seq.293" = type { %"struct.grpc_core::promise_detail::SeqState.294" }
%"struct.grpc_core::promise_detail::SeqState.294" = type <{ %union.anon.295, i8, [7 x i8] }>
%union.anon.295 = type { %"struct.grpc_core::promise_detail::SeqState<grpc_core::promise_detail::SeqTraits, (lambda at /home/dtcxzyw/WorkSpace/Projects/compilers/llvm-opt-benchmark/bench/grpc/grpc/src/core/lib/transport/batch_builder.h:243:14), (lambda at /home/dtcxzyw/WorkSpace/Projects/compilers/llvm-opt-benchmark/bench/grpc/grpc/src/core/lib/channel/connected_channel.cc:377:9)>::Running0", [8 x i8] }
%"struct.grpc_core::promise_detail::SeqState<grpc_core::promise_detail::SeqTraits, (lambda at /home/dtcxzyw/WorkSpace/Projects/compilers/llvm-opt-benchmark/bench/grpc/grpc/src/core/lib/transport/batch_builder.h:243:14), (lambda at /home/dtcxzyw/WorkSpace/Projects/compilers/llvm-opt-benchmark/bench/grpc/grpc/src/core/lib/channel/connected_channel.cc:377:9)>::Running0" = type { %"class.grpc_core::promise_detail::PromiseLike.296", %"class.grpc_core::promise_detail::OncePromiseFactory.300" }
%"class.grpc_core::promise_detail::PromiseLike.296" = type { %class.anon.297 }
%class.anon.297 = type { %"class.grpc_core::RefCountedPtr.234", %"class.grpc_core::promise_detail::Map.298" }
%"class.grpc_core::promise_detail::Map.298" = type { %"class.grpc_core::promise_detail::PromiseLike.247", %class.anon.299 }
%class.anon.299 = type { ptr }
%"class.grpc_core::promise_detail::OncePromiseFactory.300" = type { %class.anon.301 }
%class.anon.301 = type { i8, ptr }
%"class.grpc_core::(anonymous namespace)::ConnectedChannelStream" = type <{ %"class.grpc_core::Orphanable", ptr, %"class.grpc_core::RefCountedPtr.182", %struct.grpc_closure, %struct.grpc_stream_refcount, %"class.std::unique_ptr.183", ptr, ptr, %"class.grpc_core::ExternallyObservableLatch", [4 x i8] }>
%"class.grpc_core::Orphanable" = type { ptr }
%"class.grpc_core::RefCountedPtr.182" = type { ptr }
%"class.std::unique_ptr.183" = type { %"struct.std::__uniq_ptr_data.184" }
%"struct.std::__uniq_ptr_data.184" = type { %"class.std::__uniq_ptr_impl.185" }
%"class.std::__uniq_ptr_impl.185" = type { %"class.std::tuple.186" }
%"class.std::tuple.186" = type { %"struct.std::_Tuple_impl.187" }
%"struct.std::_Tuple_impl.187" = type { %"struct.std::_Tuple_impl.188", %"struct.std::_Head_base.190" }
%"struct.std::_Tuple_impl.188" = type { %"struct.std::_Head_base.189" }
%"struct.std::_Head_base.189" = type { %"class.grpc_core::(anonymous namespace)::ConnectedChannelStream::StreamDeleter" }
%"class.grpc_core::(anonymous namespace)::ConnectedChannelStream::StreamDeleter" = type { ptr }
%"struct.std::_Head_base.190" = type { ptr }
%"class.grpc_core::ExternallyObservableLatch" = type { %"struct.std::atomic.191", %"class.grpc_core::IntraActivityWaiter" }

@.str.26 = private unnamed_addr constant [9 x i8] c"smartptr\00", align 1

; Function Attrs: mustprogress nounwind uwtable
define linkonce_odr noundef zeroext i1 @_ZN9grpc_core8RefCount5UnrefEv(ptr noundef nonnull align 8 dereferenceable(8) %this) #4 comdat align 2 {
entry:
  %this.addr.i = alloca ptr, align 8
  %__i.addr.i = alloca i64, align 8
  %__m.addr.i = alloca i32, align 4
  %.atomictmp.i = alloca i64, align 8
  %atomic-temp.i = alloca i64, align 8
  %this.addr = alloca ptr, align 8
  %prior = alloca i64, align 8
  store ptr %this, ptr %this.addr, align 8
  %this1 = load ptr, ptr %this.addr, align 8
  %value_ = getelementptr inbounds %"class.grpc_core::RefCount", ptr %this1, i32 0, i32 0
  store ptr %value_, ptr %this.addr.i, align 8
  store i64 1, ptr %__i.addr.i, align 8
  store i32 4, ptr %__m.addr.i, align 4
  %this1.i = load ptr, ptr %this.addr.i, align 8
  %0 = load i32, ptr %__m.addr.i, align 4
  %1 = load i64, ptr %__i.addr.i, align 8
  store i64 %1, ptr %.atomictmp.i, align 8
  switch i32 %0, label %monotonic.i [
    i32 1, label %acquire.i
    i32 2, label %acquire.i
    i32 3, label %release.i
    i32 4, label %acqrel.i
    i32 5, label %seqcst.i
  ]

monotonic.i:                                      ; preds = %entry
  %2 = load i64, ptr %.atomictmp.i, align 8
  %3 = atomicrmw sub ptr %this1.i, i64 %2 monotonic, align 8
  store i64 %3, ptr %atomic-temp.i, align 8
  br label %_ZNSt13__atomic_baseIlE9fetch_subElSt12memory_order.exit

acquire.i:                                        ; preds = %entry, %entry
  %4 = load i64, ptr %.atomictmp.i, align 8
  %5 = atomicrmw sub ptr %this1.i, i64 %4 acquire, align 8
  store i64 %5, ptr %atomic-temp.i, align 8
  br label %_ZNSt13__atomic_baseIlE9fetch_subElSt12memory_order.exit

release.i:                                        ; preds = %entry
  %6 = load i64, ptr %.atomictmp.i, align 8
  %7 = atomicrmw sub ptr %this1.i, i64 %6 release, align 8
  store i64 %7, ptr %atomic-temp.i, align 8
  br label %_ZNSt13__atomic_baseIlE9fetch_subElSt12memory_order.exit

acqrel.i:                                         ; preds = %entry
  %8 = load i64, ptr %.atomictmp.i, align 8
  %9 = atomicrmw sub ptr %this1.i, i64 %8 acq_rel, align 8
  store i64 %9, ptr %atomic-temp.i, align 8
  br label %_ZNSt13__atomic_baseIlE9fetch_subElSt12memory_order.exit

seqcst.i:                                         ; preds = %entry
  %10 = load i64, ptr %.atomictmp.i, align 8
  %11 = atomicrmw sub ptr %this1.i, i64 %10 seq_cst, align 8
  store i64 %11, ptr %atomic-temp.i, align 8
  br label %_ZNSt13__atomic_baseIlE9fetch_subElSt12memory_order.exit

_ZNSt13__atomic_baseIlE9fetch_subElSt12memory_order.exit: ; preds = %seqcst.i, %acqrel.i, %release.i, %acquire.i, %monotonic.i
  %12 = load i64, ptr %atomic-temp.i, align 8
  store i64 %12, ptr %prior, align 8
  %13 = load i64, ptr %prior, align 8
  %cmp = icmp eq i64 %13, 1
  ret i1 %cmp
}

; Function Attrs: mustprogress uwtable
define linkonce_odr void @_Z17grpc_stream_unrefP20grpc_stream_refcount(ptr noundef %refcount) #5 comdat {
entry:
  %refcount.addr = alloca ptr, align 8
  store ptr %refcount, ptr %refcount.addr, align 8
  %0 = load ptr, ptr %refcount.addr, align 8
  %refs = getelementptr inbounds %struct.grpc_stream_refcount, ptr %0, i32 0, i32 0
  %call = call noundef zeroext i1 @_ZN9grpc_core8RefCount5UnrefEv(ptr noundef nonnull align 8 dereferenceable(8) %refs)
  br i1 %call, label %if.then, label %if.end

if.then:                                          ; preds = %entry
  %1 = load ptr, ptr %refcount.addr, align 8
  call void @_Z19grpc_stream_destroyP20grpc_stream_refcount(ptr noundef %1)
  br label %if.end

if.end:                                           ; preds = %if.then, %entry
  ret void
}

; Function Attrs: mustprogress uwtable
define internal void @_ZN9grpc_core12_GLOBAL__N_122ConnectedChannelStream5UnrefEPKc(ptr noundef nonnull align 8 dereferenceable(132) %this, ptr noundef %reason) #5 align 2 {
entry:
  %this.addr = alloca ptr, align 8
  %reason.addr = alloca ptr, align 8
  store ptr %this, ptr %this.addr, align 8
  store ptr %reason, ptr %reason.addr, align 8
  %this1 = load ptr, ptr %this.addr, align 8
  %stream_refcount_ = getelementptr inbounds %"class.grpc_core::(anonymous namespace)::ConnectedChannelStream", ptr %this1, i32 0, i32 4
  call void @_Z17grpc_stream_unrefP20grpc_stream_refcount(ptr noundef %stream_refcount_)
  ret void
}

; Function Attrs: mustprogress nounwind uwtable
define internal void @_ZN9grpc_core13RefCountedPtrINS_12_GLOBAL__N_122ConnectedChannelStreamEED2Ev(ptr noundef nonnull align 8 dereferenceable(8) %this) unnamed_addr #4 align 2 personality ptr @__gxx_personality_v0 {
entry:
  %this.addr = alloca ptr, align 8
  store ptr %this, ptr %this.addr, align 8
  %this1 = load ptr, ptr %this.addr, align 8
  %value_ = getelementptr inbounds %"class.grpc_core::RefCountedPtr.197", ptr %this1, i32 0, i32 0
  %0 = load ptr, ptr %value_, align 8
  %cmp = icmp ne ptr %0, null
  br i1 %cmp, label %if.then, label %if.end

if.then:                                          ; preds = %entry
  %value_2 = getelementptr inbounds %"class.grpc_core::RefCountedPtr.197", ptr %this1, i32 0, i32 0
  %1 = load ptr, ptr %value_2, align 8
  invoke void @_ZN9grpc_core12_GLOBAL__N_122ConnectedChannelStream5UnrefEPKc(ptr noundef nonnull align 8 dereferenceable(132) %1, ptr noundef @.str.26)
          to label %invoke.cont unwind label %terminate.lpad

invoke.cont:                                      ; preds = %if.then
  br label %if.end

if.end:                                           ; preds = %invoke.cont, %entry
  ret void

terminate.lpad:                                   ; preds = %if.then
  %2 = landingpad { ptr, i32 }
          catch ptr null
  %3 = extractvalue { ptr, i32 } %2, 0
  call void @__clang_call_terminate(ptr %3) #16
  unreachable
}

; Function Attrs: mustprogress nounwind uwtable
define internal void @"_ZZN9grpc_core12_GLOBAL__N_122ConnectedChannelStream12RecvMessagesEPNS_10PipeSenderISt10unique_ptrINS_7MessageENS_5Arena13PooledDeleterEEEEbEN3$_0D2Ev"(ptr noundef nonnull align 8 dereferenceable(24) %this) unnamed_addr #4 align 2 {
entry:
  %this.addr = alloca ptr, align 8
  store ptr %this, ptr %this.addr, align 8
  %this1 = load ptr, ptr %this.addr, align 8
  %0 = getelementptr inbounds %class.anon.290, ptr %this1, i32 0, i32 2
  call void @_ZN9grpc_core10PipeSenderISt10unique_ptrINS_7MessageENS_5Arena13PooledDeleterEEED2Ev(ptr noundef nonnull align 8 dereferenceable(8) %0) #3
  %1 = getelementptr inbounds %class.anon.290, ptr %this1, i32 0, i32 0
  call void @_ZN9grpc_core13RefCountedPtrINS_12_GLOBAL__N_122ConnectedChannelStreamEED2Ev(ptr noundef nonnull align 8 dereferenceable(8) %1) #3
  ret void
}

; Function Attrs: mustprogress nounwind uwtable
define internal void @"_ZN9grpc_core14promise_detail11PromiseLikeINS0_3SeqIZNS_12BatchBuilder5Batch8RefUntilINS0_3MapIZNS_5LatchIN4absl12lts_202308026StatusEE4WaitEvEUlvE_ZNS3_14ReceiveMessageENS3_6TargetEEUlSA_E_EEEEDaT_EUlvE_JZZNS_12_GLOBAL__N_122ConnectedChannelStream12RecvMessagesEPNS_10PipeSenderISt10unique_ptrINS_7MessageENS_5Arena13PooledDeleterEEEEbEN3$_0clEvEUlNS9_8StatusOrISt8optionalISP_EEEE_EEEvED2Ev"(ptr noundef nonnull align 8 dereferenceable(56) %this) unnamed_addr #4 align 2 {
entry:
  %this.addr = alloca ptr, align 8
  store ptr %this, ptr %this.addr, align 8
  %this1 = load ptr, ptr %this.addr, align 8
  %f_ = getelementptr inbounds %"class.grpc_core::promise_detail::PromiseLike.292", ptr %this1, i32 0, i32 0
  call void @"_ZN9grpc_core14promise_detail3SeqIZNS_12BatchBuilder5Batch8RefUntilINS0_3MapIZNS_5LatchIN4absl12lts_202308026StatusEE4WaitEvEUlvE_ZNS2_14ReceiveMessageENS2_6TargetEEUlS9_E_EEEEDaT_EUlvE_JZZNS_12_GLOBAL__N_122ConnectedChannelStream12RecvMessagesEPNS_10PipeSenderISt10unique_ptrINS_7MessageENS_5Arena13PooledDeleterEEEEbEN3$_0clEvEUlNS8_8StatusOrISt8optionalISO_EEEE_EED2Ev"(ptr noundef nonnull align 8 dereferenceable(56) %f_) #3
  ret void
}

; Function Attrs: mustprogress nounwind uwtable
define internal void @"_ZN9grpc_core14promise_detail22RepeatedPromiseFactoryIvZNS_12_GLOBAL__N_122ConnectedChannelStream12RecvMessagesEPNS_10PipeSenderISt10unique_ptrINS_7MessageENS_5Arena13PooledDeleterEEEEbE3$_0ED2Ev"(ptr noundef nonnull align 8 dereferenceable(24) %this) unnamed_addr #4 align 2 {
entry:
  %this.addr = alloca ptr, align 8
  store ptr %this, ptr %this.addr, align 8
  %this1 = load ptr, ptr %this.addr, align 8
  %f_ = getelementptr inbounds %"class.grpc_core::promise_detail::RepeatedPromiseFactory.289", ptr %this1, i32 0, i32 0
  call void @"_ZZN9grpc_core12_GLOBAL__N_122ConnectedChannelStream12RecvMessagesEPNS_10PipeSenderISt10unique_ptrINS_7MessageENS_5Arena13PooledDeleterEEEEbEN3$_0D2Ev"(ptr noundef nonnull align 8 dereferenceable(24) %f_) #3
  ret void
}

; Function Attrs: mustprogress nounwind uwtable
define internal void @"_ZN9grpc_core8DestructINS_14promise_detail11PromiseLikeINS1_3SeqIZNS_12BatchBuilder5Batch8RefUntilINS1_3MapIZNS_5LatchIN4absl12lts_202308026StatusEE4WaitEvEUlvE_ZNS4_14ReceiveMessageENS4_6TargetEEUlSB_E_EEEEDaT_EUlvE_JZZNS_12_GLOBAL__N_122ConnectedChannelStream12RecvMessagesEPNS_10PipeSenderISt10unique_ptrINS_7MessageENS_5Arena13PooledDeleterEEEEbEN3$_0clEvEUlNSA_8StatusOrISt8optionalISQ_EEEE_EEEvEEEEvPSH_"(ptr noundef %p) #4 {
entry:
  %p.addr = alloca ptr, align 8
  store ptr %p, ptr %p.addr, align 8
  %0 = load ptr, ptr %p.addr, align 8
  call void @"_ZN9grpc_core14promise_detail11PromiseLikeINS0_3SeqIZNS_12BatchBuilder5Batch8RefUntilINS0_3MapIZNS_5LatchIN4absl12lts_202308026StatusEE4WaitEvEUlvE_ZNS3_14ReceiveMessageENS3_6TargetEEUlSA_E_EEEEDaT_EUlvE_JZZNS_12_GLOBAL__N_122ConnectedChannelStream12RecvMessagesEPNS_10PipeSenderISt10unique_ptrINS_7MessageENS_5Arena13PooledDeleterEEEEbEN3$_0clEvEUlNS9_8StatusOrISt8optionalISP_EEEE_EEEvED2Ev"(ptr noundef nonnull align 8 dereferenceable(56) %0) #3
  ret void
}

; Function Attrs: mustprogress nounwind uwtable
define internal void @"_ZN9grpc_core14promise_detail4LoopIZNS_12_GLOBAL__N_122ConnectedChannelStream12RecvMessagesEPNS_10PipeSenderISt10unique_ptrINS_7MessageENS_5Arena13PooledDeleterEEEEbE3$_0ED2Ev"(ptr noundef nonnull align 8 dereferenceable(81) %this) unnamed_addr #4 align 2 {
entry:
  %this.addr = alloca ptr, align 8
  store ptr %this, ptr %this.addr, align 8
  %this1 = load ptr, ptr %this.addr, align 8
  %started_ = getelementptr inbounds %"class.grpc_core::promise_detail::Loop", ptr %this1, i32 0, i32 2
  %0 = load i8, ptr %started_, align 8
  %tobool = trunc i8 %0 to i1
  br i1 %tobool, label %if.then, label %if.end

if.then:                                          ; preds = %entry
  %1 = getelementptr inbounds %"class.grpc_core::promise_detail::Loop", ptr %this1, i32 0, i32 1
  call void @"_ZN9grpc_core8DestructINS_14promise_detail11PromiseLikeINS1_3SeqIZNS_12BatchBuilder5Batch8RefUntilINS1_3MapIZNS_5LatchIN4absl12lts_202308026StatusEE4WaitEvEUlvE_ZNS4_14ReceiveMessageENS4_6TargetEEUlSB_E_EEEEDaT_EUlvE_JZZNS_12_GLOBAL__N_122ConnectedChannelStream12RecvMessagesEPNS_10PipeSenderISt10unique_ptrINS_7MessageENS_5Arena13PooledDeleterEEEEbEN3$_0clEvEUlNSA_8StatusOrISt8optionalISQ_EEEE_EEEvEEEEvPSH_"(ptr noundef %1)
  br label %if.end

if.end:                                           ; preds = %if.then, %entry
  %factory_ = getelementptr inbounds %"class.grpc_core::promise_detail::Loop", ptr %this1, i32 0, i32 0
  call void @"_ZN9grpc_core14promise_detail22RepeatedPromiseFactoryIvZNS_12_GLOBAL__N_122ConnectedChannelStream12RecvMessagesEPNS_10PipeSenderISt10unique_ptrINS_7MessageENS_5Arena13PooledDeleterEEEEbE3$_0ED2Ev"(ptr noundef nonnull align 8 dereferenceable(24) %factory_) #3
  ret void
}