; Function Attrs: mustprogress nounwind uwtable
define internal fastcc void @"_ZN9grpc_core14promise_detail4LoopIZNS_12_GLOBAL__N_122ConnectedChannelStream12RecvMessagesEPNS_10PipeSenderISt10unique_ptrINS_7MessageENS_5Arena13PooledDeleterEEEEbE3$_0ED2Ev"(ptr noundef nonnull align 8 dereferenceable(81) %this) unnamed_addr #13 align 2 personality ptr @__gxx_personality_v0 {
entry:
  %started_ = getelementptr inbounds i8, ptr %this, i64 80
  %0 = load i8, ptr %started_, align 8
  %1 = and i8 %0, 1
  %tobool.not = icmp eq i8 %1, 0
  br i1 %tobool.not, label %if.end, label %if.then

if.then:                                          ; preds = %entry
  %2 = getelementptr inbounds i8, ptr %this, i64 24
  tail call fastcc void @"_ZN9grpc_core14promise_detail3SeqIZNS_12BatchBuilder5Batch8RefUntilINS0_3MapIZNS_5LatchIN4absl12lts_202308026StatusEE4WaitEvEUlvE_ZNS2_14ReceiveMessageENS2_6TargetEEUlS9_E_EEEEDaT_EUlvE_JZZNS_12_GLOBAL__N_122ConnectedChannelStream12RecvMessagesEPNS_10PipeSenderISt10unique_ptrINS_7MessageENS_5Arena13PooledDeleterEEEEbEN3$_0clEvEUlNS8_8StatusOrISt8optionalISO_EEEE_EED2Ev"(ptr noundef nonnull align 8 dereferenceable(56) %2) #23
  br label %if.end

if.end:                                           ; preds = %if.then, %entry
  %3 = getelementptr inbounds i8, ptr %this, i64 16
  tail call void @_ZN9grpc_core10PipeSenderISt10unique_ptrINS_7MessageENS_5Arena13PooledDeleterEEED2Ev(ptr noundef nonnull align 8 dereferenceable(8) %3) #23
  %this.val.i.i = load ptr, ptr %this, align 8
  %cmp.not.i.i.i = icmp eq ptr %this.val.i.i, null
  br i1 %cmp.not.i.i.i, label %"_ZN9grpc_core14promise_detail22RepeatedPromiseFactoryIvZNS_12_GLOBAL__N_122ConnectedChannelStream12RecvMessagesEPNS_10PipeSenderISt10unique_ptrINS_7MessageENS_5Arena13PooledDeleterEEEEbE3$_0ED2Ev.exit", label %if.then.i.i.i

if.then.i.i.i:                                    ; preds = %if.end
  %stream_refcount_.i.i.i.i = getelementptr inbounds i8, ptr %this.val.i.i, i64 56
  %4 = atomicrmw sub ptr %stream_refcount_.i.i.i.i, i64 1 acq_rel, align 8
  %cmp.i.i.i.i.i.i = icmp eq i64 %4, 1
  br i1 %cmp.i.i.i.i.i.i, label %if.then.i.i.i.i.i, label %"_ZN9grpc_core14promise_detail22RepeatedPromiseFactoryIvZNS_12_GLOBAL__N_122ConnectedChannelStream12RecvMessagesEPNS_10PipeSenderISt10unique_ptrINS_7MessageENS_5Arena13PooledDeleterEEEEbE3$_0ED2Ev.exit"

if.then.i.i.i.i.i:                                ; preds = %if.then.i.i.i
  invoke void @_Z19grpc_stream_destroyP20grpc_stream_refcount(ptr noundef nonnull %stream_refcount_.i.i.i.i)
          to label %"_ZN9grpc_core14promise_detail22RepeatedPromiseFactoryIvZNS_12_GLOBAL__N_122ConnectedChannelStream12RecvMessagesEPNS_10PipeSenderISt10unique_ptrINS_7MessageENS_5Arena13PooledDeleterEEEEbE3$_0ED2Ev.exit" unwind label %terminate.lpad.i.i.i

terminate.lpad.i.i.i:                             ; preds = %if.then.i.i.i.i.i
  %5 = landingpad { ptr, i32 }
          catch ptr null
  %6 = extractvalue { ptr, i32 } %5, 0
  tail call void @__clang_call_terminate(ptr %6) #24
  unreachable

"_ZN9grpc_core14promise_detail22RepeatedPromiseFactoryIvZNS_12_GLOBAL__N_122ConnectedChannelStream12RecvMessagesEPNS_10PipeSenderISt10unique_ptrINS_7MessageENS_5Arena13PooledDeleterEEEEbE3$_0ED2Ev.exit": ; preds = %if.end, %if.then.i.i.i, %if.then.i.i.i.i.i
  ret void
}